target datalayout = "e-m:e-p270:32:32-p271:32:32-p272:64:64-i64:64-i128:128-f80:128-n8:16:32:64-S128"
target triple = "x86_64-pc-linux-gnu"

%struct.png_struct_def = type { [1 x %struct.__jmp_buf_tag], ptr, ptr, i64, ptr, ptr, ptr, ptr, ptr, ptr, ptr, ptr, ptr, i8, i8, i32, i32, i32, i32, %struct.z_stream_s, ptr, i32, i32, i32, i32, i32, i32, i32, i32, i32, i32, i32, i32, i32, i32, i32, i32, i32, i32, i32, i32, i32, i64, i32, i32, i32, ptr, ptr, ptr, ptr, i64, i32, i32, ptr, i16, i32, i16, i8, i8, i8, i8, i8, i8, i8, i8, i8, i8, i8, i8, i8, i8, i8, i16, i8, i32, %struct.png_color_16_struct, %struct.png_color_16_struct, ptr, i32, i32, %struct.png_xy, i32, i32, i32, i32, i32, ptr, ptr, ptr, ptr, ptr, ptr, %struct.png_color_8_struct, %struct.png_color_8_struct, ptr, %struct.png_color_16_struct, ptr, ptr, ptr, ptr, ptr, ptr, ptr, ptr, ptr, i32, i32, i64, i64, i64, i64, i32, i32, ptr, ptr, i32, [29 x i8], i32, ptr, ptr, i32, i32, ptr, i8, i8, i16, i16, ptr, i32, i8, ptr, ptr, ptr, ptr, ptr, ptr, ptr, i8, i32, i32, i32, i64, %struct.png_unknown_chunk_t, i64, ptr, i64, i32, i32, ptr, [4 x ptr] }
%struct.__jmp_buf_tag = type { [8 x i64], i32, %struct.__sigset_t }
%struct.__sigset_t = type { [16 x i64] }
%struct.z_stream_s = type { ptr, i32, i64, ptr, i32, i64, ptr, ptr, ptr, ptr, ptr, i32, i64, i64 }
%struct.png_xy = type { i32, i32, i32, i32, i32, i32, i32, i32 }
%struct.png_color_8_struct = type { i8, i8, i8, i8, i8 }
%struct.png_color_16_struct = type { i8, i16, i16, i16, i16 }
%struct.png_unknown_chunk_t = type { [5 x i8], ptr, i64, i8 }

@.str.6 = private unnamed_addr constant [20 x i8] c"error in user chunk\00", align 1
@.str.7 = private unnamed_addr constant [22 x i8] c"Saving unknown chunk:\00", align 1
@.str.8 = private unnamed_addr constant [76 x i8] c"forcing save of an unhandled chunk; please call png_set_keep_unknown_chunks\00", align 1
@.str.9 = private unnamed_addr constant [24 x i8] c"no space in chunk cache\00", align 1
@.str.10 = private unnamed_addr constant [25 x i8] c"unhandled critical chunk\00", align 1

; Function Attrs: nounwind uwtable
define i32 @png_crc_finish(ptr noalias noundef %0, i32 noundef %1) #0 {
  %3 = alloca ptr, align 8
  %4 = alloca i32, align 4
  store ptr %0, ptr %3, align 8, !tbaa !3
  store i32 %1, ptr %4, align 4, !tbaa !11
  %5 = load ptr, ptr %3, align 8, !tbaa !3
  %6 = load i32, ptr %4, align 4, !tbaa !11
  %7 = call i32 @png_crc_finish_critical(ptr noundef %5, i32 noundef %6, i32 noundef 0)
  ret i32 %7
}

; Function Attrs: nounwind uwtable
define i32 @png_handle_unknown(ptr noalias noundef %0, ptr noalias noundef %1, i32 noundef %2, i32 noundef %3) #0 {
  %5 = alloca ptr, align 8
  %6 = alloca ptr, align 8
  %7 = alloca i32, align 4
  %8 = alloca i32, align 4
  %9 = alloca i32, align 4
  %10 = alloca i32, align 4
  store ptr %0, ptr %5, align 8, !tbaa !3
  store ptr %1, ptr %6, align 8, !tbaa !13
  store i32 %2, ptr %7, align 4, !tbaa !11
  store i32 %3, ptr %8, align 4, !tbaa !11
  call void @llvm.lifetime.start.p0(i64 4, ptr %9) #7
  store i32 1, ptr %9, align 4, !tbaa !11
  %11 = load ptr, ptr %5, align 8, !tbaa !3
  %12 = getelementptr inbounds nuw %struct.png_struct_def, ptr %11, i32 0, i32 119
  %13 = load ptr, ptr %12, align 8, !tbaa !40
  %14 = icmp ne ptr %13, null
  br i1 %14, label %15, label %53

15:                                               ; preds = %4
  %16 = load ptr, ptr %5, align 8, !tbaa !3
  %17 = load i32, ptr %7, align 4, !tbaa !11
  %18 = call i32 @png_cache_unknown_chunk(ptr noundef %16, i32 noundef %17)
  %19 = icmp ne i32 %18, 0
  br i1 %19, label %20, label %51

20:                                               ; preds = %15
  call void @llvm.lifetime.start.p0(i64 4, ptr %10) #7
  %21 = load ptr, ptr %5, align 8, !tbaa !3
  %22 = getelementptr inbounds nuw %struct.png_struct_def, ptr %21, i32 0, i32 119
  %23 = load ptr, ptr %22, align 8, !tbaa !40
  %24 = load ptr, ptr %5, align 8, !tbaa !3
  %25 = load ptr, ptr %5, align 8, !tbaa !3
  %26 = getelementptr inbounds nuw %struct.png_struct_def, ptr %25, i32 0, i32 142
  %27 = call i32 %23(ptr noundef %24, ptr noundef %26)
  store i32 %27, ptr %10, align 4, !tbaa !11
  %28 = load i32, ptr %10, align 4, !tbaa !11
  %29 = icmp slt i32 %28, 0
  br i1 %29, label %30, label %32

30:                                               ; preds = %20
  %31 = load ptr, ptr %5, align 8, !tbaa !3
  call void @png_chunk_error(ptr noundef %31, ptr noundef @.str.6) #8
  unreachable

32:                                               ; preds = %20
  %33 = load i32, ptr %10, align 4, !tbaa !11
  %34 = icmp eq i32 %33, 0
  br i1 %34, label %35, label %48

35:                                               ; preds = %32
  %36 = load i32, ptr %8, align 4, !tbaa !11
  %37 = icmp slt i32 %36, 2
  br i1 %37, label %38, label %47

38:                                               ; preds = %35
  %39 = load ptr, ptr %5, align 8, !tbaa !3
  %40 = getelementptr inbounds nuw %struct.png_struct_def, ptr %39, i32 0, i32 120
  %41 = load i32, ptr %40, align 8, !tbaa !41
  %42 = icmp slt i32 %41, 2
  br i1 %42, label %43, label %46

43:                                               ; preds = %38
  %44 = load ptr, ptr %5, align 8, !tbaa !3
  call void @png_chunk_warning(ptr noundef %44, ptr noundef @.str.7)
  %45 = load ptr, ptr %5, align 8, !tbaa !3
  call void @png_app_warning(ptr noundef %45, ptr noundef @.str.8)
  br label %46

46:                                               ; preds = %43, %38
  store i32 2, ptr %8, align 4, !tbaa !11
  br label %47

47:                                               ; preds = %46, %35
  br label %49

48:                                               ; preds = %32
  store i32 3, ptr %9, align 4, !tbaa !11
  store i32 1, ptr %8, align 4, !tbaa !11
  br label %49

49:                                               ; preds = %48, %47
  br label %50

50:                                               ; preds = %49
  call void @llvm.lifetime.end.p0(i64 4, ptr %10) #7
  br label %52

51:                                               ; preds = %15
  store i32 1, ptr %8, align 4, !tbaa !11
  br label %52

52:                                               ; preds = %51, %50
  br label %85

53:                                               ; preds = %4
  %54 = load i32, ptr %8, align 4, !tbaa !11
  %55 = icmp eq i32 %54, 0
  br i1 %55, label %56, label %60

56:                                               ; preds = %53
  %57 = load ptr, ptr %5, align 8, !tbaa !3
  %58 = getelementptr inbounds nuw %struct.png_struct_def, ptr %57, i32 0, i32 120
  %59 = load i32, ptr %58, align 8, !tbaa !41
  store i32 %59, ptr %8, align 4, !tbaa !11
  br label %60

60:                                               ; preds = %56, %53
  %61 = load i32, ptr %8, align 4, !tbaa !11
  %62 = icmp eq i32 %61, 3
  br i1 %62, label %73, label %63

63:                                               ; preds = %60
  %64 = load i32, ptr %8, align 4, !tbaa !11
  %65 = icmp eq i32 %64, 2
  br i1 %65, label %66, label %80

66:                                               ; preds = %63
  %67 = load ptr, ptr %5, align 8, !tbaa !3
  %68 = getelementptr inbounds nuw %struct.png_struct_def, ptr %67, i32 0, i32 45
  %69 = load i32, ptr %68, align 8, !tbaa !32
  %70 = lshr i32 %69, 29
  %71 = and i32 1, %70
  %72 = icmp ne i32 %71, 0
  br i1 %72, label %73, label %80

73:                                               ; preds = %66, %60
  %74 = load ptr, ptr %5, align 8, !tbaa !3
  %75 = load i32, ptr %7, align 4, !tbaa !11
  %76 = call i32 @png_cache_unknown_chunk(ptr noundef %74, i32 noundef %75)
  %77 = icmp eq i32 %76, 0
  br i1 %77, label %78, label %79

78:                                               ; preds = %73
  store i32 1, ptr %8, align 4, !tbaa !11
  br label %79

79:                                               ; preds = %78, %73
  br label %84

80:                                               ; preds = %66, %63
  %81 = load ptr, ptr %5, align 8, !tbaa !3
  %82 = load i32, ptr %7, align 4, !tbaa !11
  %83 = call i32 @png_crc_finish(ptr noundef %81, i32 noundef %82)
  br label %84

84:                                               ; preds = %80, %79
  br label %85

85:                                               ; preds = %84, %52
  %86 = load i32, ptr %8, align 4, !tbaa !11
  %87 = icmp eq i32 %86, 3
  br i1 %87, label %98, label %88

88:                                               ; preds = %85
  %89 = load i32, ptr %8, align 4, !tbaa !11
  %90 = icmp eq i32 %89, 2
  br i1 %90, label %91, label %117

91:                                               ; preds = %88
  %92 = load ptr, ptr %5, align 8, !tbaa !3
  %93 = getelementptr inbounds nuw %struct.png_struct_def, ptr %92, i32 0, i32 45
  %94 = load i32, ptr %93, align 8, !tbaa !32
  %95 = lshr i32 %94, 29
  %96 = and i32 1, %95
  %97 = icmp ne i32 %96, 0
  br i1 %97, label %98, label %117

98:                                               ; preds = %91, %85
  %99 = load ptr, ptr %5, align 8, !tbaa !3
  %100 = getelementptr inbounds nuw %struct.png_struct_def, ptr %99, i32 0, i32 140
  %101 = load i32, ptr %100, align 4, !tbaa !42
  switch i32 %101, label %106 [
    i32 2, label %102
    i32 1, label %116
    i32 0, label %111
  ]

102:                                              ; preds = %98
  %103 = load ptr, ptr %5, align 8, !tbaa !3
  %104 = getelementptr inbounds nuw %struct.png_struct_def, ptr %103, i32 0, i32 140
  store i32 1, ptr %104, align 4, !tbaa !42
  %105 = load ptr, ptr %5, align 8, !tbaa !3
  call void @png_chunk_benign_error(ptr noundef %105, ptr noundef @.str.9)
  br label %116

106:                                              ; preds = %98
  %107 = load ptr, ptr %5, align 8, !tbaa !3
  %108 = getelementptr inbounds nuw %struct.png_struct_def, ptr %107, i32 0, i32 140
  %109 = load i32, ptr %108, align 4, !tbaa !42
  %110 = add i32 %109, -1
  store i32 %110, ptr %108, align 4, !tbaa !42
  br label %111

111:                                              ; preds = %98, %106
  %112 = load ptr, ptr %5, align 8, !tbaa !3
  %113 = load ptr, ptr %6, align 8, !tbaa !13
  %114 = load ptr, ptr %5, align 8, !tbaa !3
  %115 = getelementptr inbounds nuw %struct.png_struct_def, ptr %114, i32 0, i32 142
  call void @png_set_unknown_chunks(ptr noundef %112, ptr noundef %113, ptr noundef %115, i32 noundef 1)
  store i32 2, ptr %9, align 4, !tbaa !11
  br label %116

116:                                              ; preds = %111, %102, %98
  br label %117

117:                                              ; preds = %116, %91, %88
  %118 = load ptr, ptr %5, align 8, !tbaa !3
  %119 = getelementptr inbounds nuw %struct.png_struct_def, ptr %118, i32 0, i32 142
  %120 = getelementptr inbounds nuw %struct.png_unknown_chunk_t, ptr %119, i32 0, i32 1
  %121 = load ptr, ptr %120, align 8, !tbaa !43
  %122 = icmp ne ptr %121, null
  br i1 %122, label %123, label %129

123:                                              ; preds = %117
  %124 = load ptr, ptr %5, align 8, !tbaa !3
  %125 = load ptr, ptr %5, align 8, !tbaa !3
  %126 = getelementptr inbounds nuw %struct.png_struct_def, ptr %125, i32 0, i32 142
  %127 = getelementptr inbounds nuw %struct.png_unknown_chunk_t, ptr %126, i32 0, i32 1
  %128 = load ptr, ptr %127, align 8, !tbaa !43
  call void @png_free(ptr noundef %124, ptr noundef %128)
  br label %129

129:                                              ; preds = %123, %117
  %130 = load ptr, ptr %5, align 8, !tbaa !3
  %131 = getelementptr inbounds nuw %struct.png_struct_def, ptr %130, i32 0, i32 142
  %132 = getelementptr inbounds nuw %struct.png_unknown_chunk_t, ptr %131, i32 0, i32 1
  store ptr null, ptr %132, align 8, !tbaa !43
  %133 = load i32, ptr %9, align 4, !tbaa !11
  %134 = icmp ult i32 %133, 2
  br i1 %134, label %135, label %144

135:                                              ; preds = %129
  %136 = load ptr, ptr %5, align 8, !tbaa !3
  %137 = getelementptr inbounds nuw %struct.png_struct_def, ptr %136, i32 0, i32 45
  %138 = load i32, ptr %137, align 8, !tbaa !32
  %139 = lshr i32 %138, 29
  %140 = and i32 1, %139
  %141 = icmp ne i32 %140, 0
  br i1 %141, label %144, label %142

142:                                              ; preds = %135
  %143 = load ptr, ptr %5, align 8, !tbaa !3
  call void @png_chunk_error(ptr noundef %143, ptr noundef @.str.10) #8
  unreachable

144:                                              ; preds = %135, %129
  %145 = load i32, ptr %9, align 4, !tbaa !11
  call void @llvm.lifetime.end.p0(i64 4, ptr %9) #7
  ret i32 %145
}