; Function Attrs: nounwind uwtable
define range(i32 1, 4) i32 @png_handle_unknown(ptr noalias noundef %0, ptr noalias noundef %1, i32 noundef %2, i32 noundef %3) local_unnamed_addr #0 {
  %5 = getelementptr inbounds nuw i8, ptr %0, i64 1008
  %6 = load ptr, ptr %5, align 8, !tbaa !42
  %.not = icmp eq ptr %6, null
  br i1 %.not, label %24, label %7

7:                                                ; preds = %4
  %8 = tail call fastcc i32 @png_cache_unknown_chunk(ptr noundef nonnull %0, i32 noundef %2)
  %.not47 = icmp eq i32 %8, 0
  br i1 %.not47, label %.thread, label %9

9:                                                ; preds = %7
  %10 = load ptr, ptr %5, align 8, !tbaa !42
  %11 = getelementptr inbounds nuw i8, ptr %0, i64 1136
  %12 = tail call i32 %10(ptr noundef nonnull %0, ptr noundef nonnull %11) #12
  %13 = icmp slt i32 %12, 0
  br i1 %13, label %14, label %15

14:                                               ; preds = %9
  tail call void @png_chunk_error(ptr noundef nonnull %0, ptr noundef nonnull @.str.6) #11
  unreachable

15:                                               ; preds = %9
  %16 = icmp eq i32 %12, 0
  br i1 %16, label %17, label %.thread

17:                                               ; preds = %15
  %18 = icmp slt i32 %3, 2
  br i1 %18, label %19, label %39

19:                                               ; preds = %17
  %20 = getelementptr inbounds nuw i8, ptr %0, i64 1016
  %21 = load i32, ptr %20, align 8, !tbaa !43
  %22 = icmp slt i32 %21, 2
  br i1 %22, label %23, label %.thread54

23:                                               ; preds = %19
  tail call void @png_chunk_warning(ptr noundef nonnull %0, ptr noundef nonnull @.str.7) #12
  tail call void @png_app_warning(ptr noundef nonnull %0, ptr noundef nonnull @.str.8) #12
  br label %.thread54

24:                                               ; preds = %4
  %25 = icmp eq i32 %3, 0
  br i1 %25, label %26, label %29

26:                                               ; preds = %24
  %27 = getelementptr inbounds nuw i8, ptr %0, i64 1016
  %28 = load i32, ptr %27, align 8, !tbaa !43
  br label %29

29:                                               ; preds = %26, %24
  %.2 = phi i32 [ %28, %26 ], [ %3, %24 ]
  switch i32 %.2, label %37 [
    i32 3, label %34
    i32 2, label %30
  ]

30:                                               ; preds = %29
  %31 = getelementptr inbounds nuw i8, ptr %0, i64 544
  %32 = load i32, ptr %31, align 8, !tbaa !28
  %33 = and i32 %32, 536870912
  %.not46 = icmp eq i32 %33, 0
  br i1 %.not46, label %37, label %34

34:                                               ; preds = %29, %30
  %35 = tail call fastcc i32 @png_cache_unknown_chunk(ptr noundef nonnull %0, i32 noundef %2)
  %36 = icmp eq i32 %35, 0
  br i1 %36, label %.thread, label %39

37:                                               ; preds = %29, %30
  %38 = tail call fastcc range(i32 0, 2) i32 @png_crc_finish_critical(ptr noundef nonnull %0, i32 noundef %2, i32 noundef 0)
  br label %39

39:                                               ; preds = %34, %17, %37
  %.1 = phi i32 [ %.2, %37 ], [ %3, %17 ], [ %.2, %34 ]
  switch i32 %.1, label %.thread [
    i32 3, label %43
    i32 2, label %.thread54
  ]

.thread54:                                        ; preds = %19, %23, %39
  %40 = getelementptr inbounds nuw i8, ptr %0, i64 544
  %41 = load i32, ptr %40, align 8, !tbaa !28
  %42 = and i32 %41, 536870912
  %.not48 = icmp eq i32 %42, 0
  br i1 %.not48, label %.thread, label %43

43:                                               ; preds = %39, %.thread54
  %44 = getelementptr inbounds nuw i8, ptr %0, i64 1124
  %45 = load i32, ptr %44, align 4, !tbaa !44
  switch i32 %45, label %47 [
    i32 2, label %46
    i32 1, label %.thread
    i32 0, label %49
  ]

46:                                               ; preds = %43
  store i32 1, ptr %44, align 4, !tbaa !44
  tail call void @png_chunk_benign_error(ptr noundef nonnull %0, ptr noundef nonnull @.str.9) #12
  br label %.thread

47:                                               ; preds = %43
  %48 = add i32 %45, -1
  store i32 %48, ptr %44, align 4, !tbaa !44
  br label %49

49:                                               ; preds = %47, %43
  %50 = getelementptr inbounds nuw i8, ptr %0, i64 1136
  tail call void @png_set_unknown_chunks(ptr noundef nonnull %0, ptr noundef %1, ptr noundef nonnull %50, i32 noundef 1) #12
  br label %.thread

.thread:                                          ; preds = %34, %7, %15, %39, %43, %46, %49, %.thread54
  %51 = phi i1 [ false, %49 ], [ true, %43 ], [ true, %46 ], [ true, %.thread54 ], [ true, %39 ], [ true, %7 ], [ false, %15 ], [ true, %34 ]
  %.241 = phi i32 [ 2, %49 ], [ %45, %43 ], [ 1, %46 ], [ 1, %.thread54 ], [ 1, %39 ], [ 1, %7 ], [ 3, %15 ], [ 1, %34 ]
  %52 = getelementptr inbounds nuw i8, ptr %0, i64 1144
  %53 = load ptr, ptr %52, align 8, !tbaa !45
  %.not49 = icmp eq ptr %53, null
  br i1 %.not49, label %55, label %54

54:                                               ; preds = %.thread
  tail call void @png_free(ptr noundef nonnull %0, ptr noundef nonnull %53) #12
  br label %55

55:                                               ; preds = %54, %.thread
  store ptr null, ptr %52, align 8, !tbaa !45
  br i1 %51, label %56, label %61

56:                                               ; preds = %55
  %57 = getelementptr inbounds nuw i8, ptr %0, i64 544
  %58 = load i32, ptr %57, align 8, !tbaa !28
  %59 = and i32 %58, 536870912
  %.not50 = icmp eq i32 %59, 0
  br i1 %.not50, label %60, label %61

60:                                               ; preds = %56
  tail call void @png_chunk_error(ptr noundef nonnull %0, ptr noundef nonnull @.str.10) #11
  unreachable

61:                                               ; preds = %56, %55
  ret i32 %.241
}